; Function Attrs: mustprogress nofree norecurse nosync nounwind willreturn memory(argmem: readwrite) uwtable
define noundef i32 @H5FS_size(ptr nocapture noundef readonly %0, ptr nocapture noundef %1) local_unnamed_addr #3 {
  %3 = getelementptr inbounds i8, ptr %0, i64 352
  %4 = load i64, ptr %3, align 8
  %5 = getelementptr inbounds i8, ptr %0, i64 360
  %6 = load ptr, ptr %5, align 8
  %.not = icmp eq ptr %6, null
  %.in.v = select i1 %.not, i64 328, i64 320
  %.in = getelementptr inbounds i8, ptr %0, i64 %.in.v
  %7 = load i64, ptr %.in, align 8
  %8 = add i64 %7, %4
  %9 = load i64, ptr %1, align 8
  %10 = add i64 %8, %9
  store i64 %10, ptr %1, align 8
  ret i32 0
}